; Function Attrs: nounwind uwtable
define noundef i32 @zend_multibyte_set_functions(ptr nocapture noundef readonly %0) local_unnamed_addr #0 {
  %2 = alloca ptr, align 8
  %3 = alloca i64, align 8
  %4 = getelementptr inbounds i8, ptr %0, i64 8
  %5 = load ptr, ptr %4, align 8
  %6 = tail call ptr %5(ptr noundef nonnull @.str) #12
  store ptr %6, ptr @zend_multibyte_encoding_utf32be, align 8
  %.not = icmp eq ptr %6, null
  br i1 %.not, label %37, label %7

7:                                                ; preds = %1
  %8 = load ptr, ptr %4, align 8
  %9 = tail call ptr %8(ptr noundef nonnull @.str.1) #12
  store ptr %9, ptr @zend_multibyte_encoding_utf32le, align 8
  %.not8 = icmp eq ptr %9, null
  br i1 %.not8, label %37, label %10

10:                                               ; preds = %7
  %11 = load ptr, ptr %4, align 8
  %12 = tail call ptr %11(ptr noundef nonnull @.str.2) #12
  store ptr %12, ptr @zend_multibyte_encoding_utf16be, align 8
  %.not9 = icmp eq ptr %12, null
  br i1 %.not9, label %37, label %13

13:                                               ; preds = %10
  %14 = load ptr, ptr %4, align 8
  %15 = tail call ptr %14(ptr noundef nonnull @.str.4) #12
  store ptr %15, ptr @zend_multibyte_encoding_utf16le, align 8
  %.not10 = icmp eq ptr %15, null
  br i1 %.not10, label %37, label %16

16:                                               ; preds = %13
  %17 = load ptr, ptr %4, align 8
  %18 = tail call ptr %17(ptr noundef nonnull @.str.3) #12
  store ptr %18, ptr @zend_multibyte_encoding_utf8, align 8
  %.not11 = icmp eq ptr %18, null
  br i1 %.not11, label %37, label %19

19:                                               ; preds = %16
  tail call void @llvm.memcpy.p0.p0.i64(ptr noundef nonnull align 8 dereferenceable(72) @multibyte_functions_dummy, ptr noundef nonnull align 8 dereferenceable(72) @multibyte_functions, i64 72, i1 false)
  tail call void @llvm.memcpy.p0.p0.i64(ptr noundef nonnull align 8 dereferenceable(72) @multibyte_functions, ptr noundef nonnull align 8 dereferenceable(72) %0, i64 72, i1 false)
  %20 = tail call ptr @zend_ini_string(ptr noundef nonnull @.str.5, i64 noundef 20, i32 noundef 0) #12
  %21 = tail call i64 @strlen(ptr noundef nonnull dereferenceable(1) %20) #13
  call void @llvm.lifetime.start.p0(i64 8, ptr nonnull %2)
  call void @llvm.lifetime.start.p0(i64 8, ptr nonnull %3)
  store ptr null, ptr %2, align 8
  store i64 0, ptr %3, align 8
  %.not.i = icmp eq ptr %20, null
  br i1 %.not.i, label %22, label %25

22:                                               ; preds = %19
  %23 = load ptr, ptr getelementptr inbounds (%struct._zend_compiler_globals, ptr @compiler_globals, i64 0, i32 26), align 8
  %.not.i.i = icmp eq ptr %23, null
  br i1 %.not.i.i, label %zend_multibyte_set_script_encoding.exit.i, label %24

24:                                               ; preds = %22
  tail call void @free(ptr noundef nonnull %23) #12
  br label %zend_multibyte_set_script_encoding.exit.i

zend_multibyte_set_script_encoding.exit.i:        ; preds = %24, %22
  tail call void @llvm.memset.p0.i64(ptr noundef nonnull align 8 dereferenceable(16) getelementptr inbounds (%struct._zend_compiler_globals, ptr @compiler_globals, i64 0, i32 26), i8 0, i64 16, i1 false)
  br label %zend_multibyte_set_script_encoding_by_string.exit

25:                                               ; preds = %19
  %26 = load ptr, ptr getelementptr inbounds (%struct._zend_multibyte_functions, ptr @multibyte_functions, i64 0, i32 6), align 8
  %27 = call i32 %26(ptr noundef nonnull %20, i64 noundef %21, ptr noundef nonnull %2, ptr noundef nonnull %3, i1 noundef zeroext true) #12
  %28 = icmp eq i32 %27, -1
  br i1 %28, label %zend_multibyte_set_script_encoding_by_string.exit, label %29

29:                                               ; preds = %25
  %30 = load i64, ptr %3, align 8
  %31 = icmp eq i64 %30, 0
  %32 = load ptr, ptr %2, align 8
  br i1 %31, label %33, label %34

33:                                               ; preds = %29
  call void @free(ptr noundef %32) #12
  br label %zend_multibyte_set_script_encoding_by_string.exit

34:                                               ; preds = %29
  %35 = load ptr, ptr getelementptr inbounds (%struct._zend_compiler_globals, ptr @compiler_globals, i64 0, i32 26), align 8
  %.not.i5.i = icmp eq ptr %35, null
  br i1 %.not.i5.i, label %zend_multibyte_set_script_encoding.exit6.i, label %36

36:                                               ; preds = %34
  call void @free(ptr noundef nonnull %35) #12
  br label %zend_multibyte_set_script_encoding.exit6.i

zend_multibyte_set_script_encoding.exit6.i:       ; preds = %36, %34
  store ptr %32, ptr getelementptr inbounds (%struct._zend_compiler_globals, ptr @compiler_globals, i64 0, i32 26), align 8
  store i64 %30, ptr getelementptr inbounds (%struct._zend_compiler_globals, ptr @compiler_globals, i64 0, i32 27), align 8
  br label %zend_multibyte_set_script_encoding_by_string.exit

zend_multibyte_set_script_encoding_by_string.exit: ; preds = %zend_multibyte_set_script_encoding.exit.i, %25, %33, %zend_multibyte_set_script_encoding.exit6.i
  call void @llvm.lifetime.end.p0(i64 8, ptr nonnull %2)
  call void @llvm.lifetime.end.p0(i64 8, ptr nonnull %3)
  br label %37

37:                                               ; preds = %16, %13, %10, %7, %1, %zend_multibyte_set_script_encoding_by_string.exit
  %.0 = phi i32 [ 0, %zend_multibyte_set_script_encoding_by_string.exit ], [ -1, %1 ], [ -1, %7 ], [ -1, %10 ], [ -1, %13 ], [ -1, %16 ]
  ret i32 %.0
}